target datalayout = "e-m:e-p270:32:32-p271:32:32-p272:64:64-i64:64-i128:128-f80:128-n8:16:32:64-S128"
target triple = "x86_64-pc-linux-gnu"

; Function Attrs: nounwind uwtable
define dso_local i64 @dsa_minimum_size() #0 {
  %1 = alloca i64, align 8
  %2 = alloca i32, align 4
  call void @llvm.lifetime.start.p0(i64 8, ptr %1) #8
  call void @llvm.lifetime.start.p0(i64 4, ptr %2) #8
  store i32 0, ptr %2, align 4
  store i64 7288, ptr %1, align 8
  br label %3

3:                                                ; preds = %11, %0
  %4 = load i64, ptr %1, align 8
  %5 = add i64 %4, 4096
  %6 = sub i64 %5, 1
  %7 = udiv i64 %6, 4096
  %8 = load i32, ptr %2, align 4
  %9 = sext i32 %8 to i64
  %10 = icmp ugt i64 %7, %9
  br i1 %10, label %11, label %16

11:                                               ; preds = %3
  %12 = load i32, ptr %2, align 4
  %13 = add i32 %12, 1
  store i32 %13, ptr %2, align 4
  %14 = load i64, ptr %1, align 8
  %15 = add i64 %14, 8
  store i64 %15, ptr %1, align 8
  br label %3, !llvm.loop !25

16:                                               ; preds = %3
  %17 = load i32, ptr %2, align 4
  %18 = mul i32 %17, 4096
  %19 = sext i32 %18 to i64
  call void @llvm.lifetime.end.p0(i64 4, ptr %2) #8
  call void @llvm.lifetime.end.p0(i64 8, ptr %1) #8
  ret i64 %19
}