; Function Attrs: nofree norecurse nosync nounwind memory(none) uwtable
define dso_local range(i64 -2147483648, 2147483648) i64 @dsa_minimum_size() local_unnamed_addr #7 {
  br label %1

1:                                                ; preds = %0, %1
  %.07 = phi i32 [ 0, %0 ], [ %2, %1 ]
  %.056 = phi i64 [ 7288, %0 ], [ %3, %1 ]
  %2 = add i32 %.07, 1
  %3 = add i64 %.056, 8
  %.reass = add i64 %.056, 4103
  %4 = lshr i64 %.reass, 12
  %5 = sext i32 %2 to i64
  %6 = icmp ugt i64 %4, %5
  br i1 %6, label %1, label %7, !llvm.loop !4

7:                                                ; preds = %1
  %8 = shl i32 %2, 12
  %9 = sext i32 %8 to i64
  ret i64 %9
}